S'(lp0\nS"POLYGON             (dp0\\nS\'bordercolor\'\\np1\\n(I0\\nI0\\nI0\\ntp2\\nsS\'topleft\'\\np3\\n(lp4\\nI143\\naI90\\nasS\'n\'\\np5\\nI5\\nsS\'radius\'\\np6\\nI73\\nsS\'borderwidth\'\\np7\\nI1\\nsS\'fillcolor\'\\np8\\n(I255\\nI255\\nI255\\ntp9\\ns."\np1\na.'
p0
.